; ModuleID = 'probe5.d007a22ff6f70576-cgu.0'
source_filename = "probe5.d007a22ff6f70576-cgu.0"
target datalayout = "e-m:o-i64:64-i128:128-n32:64-S128"
target triple = "arm64-apple-macosx11.0.0"

@alloc_e6758488a51c40069ade2309416f0500 = private unnamed_addr constant <{ [6 x i8] }> <{ [6 x i8] c"<anon>" }>, align 1
@alloc_5491181a412bbabfebff41ab96c406e4 = private unnamed_addr constant <{ ptr, [16 x i8] }> <{ ptr @alloc_e6758488a51c40069ade2309416f0500, [16 x i8] c"\06\00\00\00\00\00\00\00\01\00\00\00\1F\00\00\00" }>, align 8

; probe5::probe
; Function Attrs: uwtable
define void @_ZN6probe55probe17h1742b0f8cca1b4f4E() unnamed_addr #0 {
start:
  %0 = call i1 @llvm.expect.i1(i1 false, i1 false)
  br i1 %0, label %panic.i, label %"_ZN4core3num21_$LT$impl$u20$u32$GT$10div_euclid17ha03c2ae09fc2a978E.exit"

panic.i:                                          ; preds = %start
; call core::panicking::panic_const::panic_const_div_by_zero
  call void @_ZN4core9panicking11panic_const23panic_const_div_by_zero17h313b5d6767f09ec6E(ptr align 8 @alloc_5491181a412bbabfebff41ab96c406e4) #3
  unreachable

"_ZN4core3num21_$LT$impl$u20$u32$GT$10div_euclid17ha03c2ae09fc2a978E.exit": ; preds = %start
  ret void
}

; Function Attrs: nocallback nofree nosync nounwind willreturn memory(none)
declare i1 @llvm.expect.i1(i1, i1) #1

; core::panicking::panic_const::panic_const_div_by_zero
; Function Attrs: cold noinline noreturn uwtable
declare void @_ZN4core9panicking11panic_const23panic_const_div_by_zero17h313b5d6767f09ec6E(ptr align 8) unnamed_addr #2

attributes #0 = { uwtable "frame-pointer"="non-leaf" "probe-stack"="inline-asm" "target-cpu"="apple-m1" }
attributes #1 = { nocallback nofree nosync nounwind willreturn memory(none) }
attributes #2 = { cold noinline noreturn uwtable "frame-pointer"="non-leaf" "probe-stack"="inline-asm" "target-cpu"="apple-m1" }
attributes #3 = { noreturn }

!llvm.module.flags = !{!0}
!llvm.ident = !{!1}

!0 = !{i32 8, !"PIC Level", i32 2}
!1 = !{!"rustc version 1.79.0-nightly (3a36386dc 2024-04-25)"}
